target datalayout = "e-m:e-p270:32:32-p271:32:32-p272:64:64-i64:64-i128:128-f80:128-n8:16:32:64-S128"
target triple = "x86_64-unknown-linux-gnu"

%class.anon.92 = type { ptr }
%"struct.__gnu_cxx::__ops::_Iter_comp_iter.187" = type { %class.anon.92 }

; Function Attrs: mustprogress uwtable
define internal void @"_ZSt22__chunk_insertion_sortIPilN9__gnu_cxx5__ops15_Iter_comp_iterIZN8facebook5velox9MapVector12canonicalizeERKSt10shared_ptrIS6_EbE3$_0EEEvT_SD_T0_T1_"(ptr noundef %__first, ptr noundef %__last, i64 noundef %__chunk_size, ptr %__comp.coerce) #0 {
entry:
  %__comp = alloca %"struct.__gnu_cxx::__ops::_Iter_comp_iter.187", align 8
  %__first.addr = alloca ptr, align 8
  %__last.addr = alloca ptr, align 8
  %__chunk_size.addr = alloca i64, align 8
  %agg.tmp = alloca %"struct.__gnu_cxx::__ops::_Iter_comp_iter.187", align 8
  %agg.tmp5 = alloca %"struct.__gnu_cxx::__ops::_Iter_comp_iter.187", align 8
  %coerce.dive = getelementptr inbounds %"struct.__gnu_cxx::__ops::_Iter_comp_iter.187", ptr %__comp, i32 0, i32 0
  %coerce.dive1 = getelementptr inbounds %class.anon.92, ptr %coerce.dive, i32 0, i32 0
  store ptr %__comp.coerce, ptr %coerce.dive1, align 8
  store ptr %__first, ptr %__first.addr, align 8
  store ptr %__last, ptr %__last.addr, align 8
  store i64 %__chunk_size, ptr %__chunk_size.addr, align 8
  br label %while.cond

while.cond:                                       ; preds = %while.body, %entry
  %0 = load ptr, ptr %__last.addr, align 8
  %1 = load ptr, ptr %__first.addr, align 8
  %sub.ptr.lhs.cast = ptrtoint ptr %0 to i64
  %sub.ptr.rhs.cast = ptrtoint ptr %1 to i64
  %sub.ptr.sub = sub i64 %sub.ptr.lhs.cast, %sub.ptr.rhs.cast
  %sub.ptr.div = sdiv exact i64 %sub.ptr.sub, 4
  %2 = load i64, ptr %__chunk_size.addr, align 8
  %cmp = icmp sge i64 %sub.ptr.div, %2
  br i1 %cmp, label %while.body, label %while.end

while.body:                                       ; preds = %while.cond
  %3 = load ptr, ptr %__first.addr, align 8
  %4 = load ptr, ptr %__first.addr, align 8
  %5 = load i64, ptr %__chunk_size.addr, align 8
  %add.ptr = getelementptr inbounds i32, ptr %4, i64 %5
  call void @llvm.memcpy.p0.p0.i64(ptr align 8 %agg.tmp, ptr align 8 %__comp, i64 8, i1 false)
  %coerce.dive2 = getelementptr inbounds %"struct.__gnu_cxx::__ops::_Iter_comp_iter.187", ptr %agg.tmp, i32 0, i32 0
  %coerce.dive3 = getelementptr inbounds %class.anon.92, ptr %coerce.dive2, i32 0, i32 0
  %6 = load ptr, ptr %coerce.dive3, align 8
  call void @"_ZSt16__insertion_sortIPiN9__gnu_cxx5__ops15_Iter_comp_iterIZN8facebook5velox9MapVector12canonicalizeERKSt10shared_ptrIS6_EbE3$_0EEEvT_SD_T0_"(ptr noundef %3, ptr noundef %add.ptr, ptr %6)
  %7 = load i64, ptr %__chunk_size.addr, align 8
  %8 = load ptr, ptr %__first.addr, align 8
  %add.ptr4 = getelementptr inbounds i32, ptr %8, i64 %7
  store ptr %add.ptr4, ptr %__first.addr, align 8
  br label %while.cond, !llvm.loop !106

while.end:                                        ; preds = %while.cond
  %9 = load ptr, ptr %__first.addr, align 8
  %10 = load ptr, ptr %__last.addr, align 8
  call void @llvm.memcpy.p0.p0.i64(ptr align 8 %agg.tmp5, ptr align 8 %__comp, i64 8, i1 false)
  %coerce.dive6 = getelementptr inbounds %"struct.__gnu_cxx::__ops::_Iter_comp_iter.187", ptr %agg.tmp5, i32 0, i32 0
  %coerce.dive7 = getelementptr inbounds %class.anon.92, ptr %coerce.dive6, i32 0, i32 0
  %11 = load ptr, ptr %coerce.dive7, align 8
  call void @"_ZSt16__insertion_sortIPiN9__gnu_cxx5__ops15_Iter_comp_iterIZN8facebook5velox9MapVector12canonicalizeERKSt10shared_ptrIS6_EbE3$_0EEEvT_SD_T0_"(ptr noundef %9, ptr noundef %10, ptr %11)
  ret void
}

; Function Attrs: mustprogress uwtable
define internal void @"_ZSt24__merge_sort_with_bufferIPiS0_N9__gnu_cxx5__ops15_Iter_comp_iterIZN8facebook5velox9MapVector12canonicalizeERKSt10shared_ptrIS6_EbE3$_0EEEvT_SD_T0_T1_"(ptr noundef %__first, ptr noundef %__last, ptr noundef %__buffer, ptr %__comp.coerce) #0 {
entry:
  %__comp = alloca %"struct.__gnu_cxx::__ops::_Iter_comp_iter.187", align 8
  %__first.addr = alloca ptr, align 8
  %__last.addr = alloca ptr, align 8
  %__buffer.addr = alloca ptr, align 8
  %__len = alloca i64, align 8
  %__buffer_last = alloca ptr, align 8
  %__step_size = alloca i64, align 8
  %agg.tmp = alloca %"struct.__gnu_cxx::__ops::_Iter_comp_iter.187", align 8
  %agg.tmp4 = alloca %"struct.__gnu_cxx::__ops::_Iter_comp_iter.187", align 8
  %agg.tmp7 = alloca %"struct.__gnu_cxx::__ops::_Iter_comp_iter.187", align 8
  %coerce.dive = getelementptr inbounds %"struct.__gnu_cxx::__ops::_Iter_comp_iter.187", ptr %__comp, i32 0, i32 0
  %coerce.dive1 = getelementptr inbounds %class.anon.92, ptr %coerce.dive, i32 0, i32 0
  store ptr %__comp.coerce, ptr %coerce.dive1, align 8
  store ptr %__first, ptr %__first.addr, align 8
  store ptr %__last, ptr %__last.addr, align 8
  store ptr %__buffer, ptr %__buffer.addr, align 8
  %0 = load ptr, ptr %__last.addr, align 8
  %1 = load ptr, ptr %__first.addr, align 8
  %sub.ptr.lhs.cast = ptrtoint ptr %0 to i64
  %sub.ptr.rhs.cast = ptrtoint ptr %1 to i64
  %sub.ptr.sub = sub i64 %sub.ptr.lhs.cast, %sub.ptr.rhs.cast
  %sub.ptr.div = sdiv exact i64 %sub.ptr.sub, 4
  store i64 %sub.ptr.div, ptr %__len, align 8
  %2 = load ptr, ptr %__buffer.addr, align 8
  %3 = load i64, ptr %__len, align 8
  %add.ptr = getelementptr inbounds i32, ptr %2, i64 %3
  store ptr %add.ptr, ptr %__buffer_last, align 8
  store i64 7, ptr %__step_size, align 8
  %4 = load ptr, ptr %__first.addr, align 8
  %5 = load ptr, ptr %__last.addr, align 8
  %6 = load i64, ptr %__step_size, align 8
  call void @llvm.memcpy.p0.p0.i64(ptr align 8 %agg.tmp, ptr align 8 %__comp, i64 8, i1 false)
  %coerce.dive2 = getelementptr inbounds %"struct.__gnu_cxx::__ops::_Iter_comp_iter.187", ptr %agg.tmp, i32 0, i32 0
  %coerce.dive3 = getelementptr inbounds %class.anon.92, ptr %coerce.dive2, i32 0, i32 0
  %7 = load ptr, ptr %coerce.dive3, align 8
  call void @"_ZSt22__chunk_insertion_sortIPilN9__gnu_cxx5__ops15_Iter_comp_iterIZN8facebook5velox9MapVector12canonicalizeERKSt10shared_ptrIS6_EbE3$_0EEEvT_SD_T0_T1_"(ptr noundef %4, ptr noundef %5, i64 noundef %6, ptr %7)
  br label %while.cond

while.cond:                                       ; preds = %while.body, %entry
  %8 = load i64, ptr %__step_size, align 8
  %9 = load i64, ptr %__len, align 8
  %cmp = icmp slt i64 %8, %9
  br i1 %cmp, label %while.body, label %while.end

while.body:                                       ; preds = %while.cond
  %10 = load ptr, ptr %__first.addr, align 8
  %11 = load ptr, ptr %__last.addr, align 8
  %12 = load ptr, ptr %__buffer.addr, align 8
  %13 = load i64, ptr %__step_size, align 8
  call void @llvm.memcpy.p0.p0.i64(ptr align 8 %agg.tmp4, ptr align 8 %__comp, i64 8, i1 false)
  %coerce.dive5 = getelementptr inbounds %"struct.__gnu_cxx::__ops::_Iter_comp_iter.187", ptr %agg.tmp4, i32 0, i32 0
  %coerce.dive6 = getelementptr inbounds %class.anon.92, ptr %coerce.dive5, i32 0, i32 0
  %14 = load ptr, ptr %coerce.dive6, align 8
  call void @"_ZSt17__merge_sort_loopIPiS0_lN9__gnu_cxx5__ops15_Iter_comp_iterIZN8facebook5velox9MapVector12canonicalizeERKSt10shared_ptrIS6_EbE3$_0EEEvT_SD_T0_T1_T2_"(ptr noundef %10, ptr noundef %11, ptr noundef %12, i64 noundef %13, ptr %14)
  %15 = load i64, ptr %__step_size, align 8
  %mul = mul nsw i64 %15, 2
  store i64 %mul, ptr %__step_size, align 8
  %16 = load ptr, ptr %__buffer.addr, align 8
  %17 = load ptr, ptr %__buffer_last, align 8
  %18 = load ptr, ptr %__first.addr, align 8
  %19 = load i64, ptr %__step_size, align 8
  call void @llvm.memcpy.p0.p0.i64(ptr align 8 %agg.tmp7, ptr align 8 %__comp, i64 8, i1 false)
  %coerce.dive8 = getelementptr inbounds %"struct.__gnu_cxx::__ops::_Iter_comp_iter.187", ptr %agg.tmp7, i32 0, i32 0
  %coerce.dive9 = getelementptr inbounds %class.anon.92, ptr %coerce.dive8, i32 0, i32 0
  %20 = load ptr, ptr %coerce.dive9, align 8
  call void @"_ZSt17__merge_sort_loopIPiS0_lN9__gnu_cxx5__ops15_Iter_comp_iterIZN8facebook5velox9MapVector12canonicalizeERKSt10shared_ptrIS6_EbE3$_0EEEvT_SD_T0_T1_T2_"(ptr noundef %16, ptr noundef %17, ptr noundef %18, i64 noundef %19, ptr %20)
  %21 = load i64, ptr %__step_size, align 8
  %mul10 = mul nsw i64 %21, 2
  store i64 %mul10, ptr %__step_size, align 8
  br label %while.cond, !llvm.loop !105

while.end:                                        ; preds = %while.cond
  ret void
}

; Function Attrs: mustprogress uwtable
define internal void @"_ZSt22__stable_sort_adaptiveIPiS0_lN9__gnu_cxx5__ops15_Iter_comp_iterIZN8facebook5velox9MapVector12canonicalizeERKSt10shared_ptrIS6_EbE3$_0EEEvT_SD_T0_T1_T2_"(ptr noundef %__first, ptr noundef %__last, ptr noundef %__buffer, i64 noundef %__buffer_size, ptr %__comp.coerce) #0 {
entry:
  %__comp = alloca %"struct.__gnu_cxx::__ops::_Iter_comp_iter.187", align 8
  %__first.addr = alloca ptr, align 8
  %__last.addr = alloca ptr, align 8
  %__buffer.addr = alloca ptr, align 8
  %__buffer_size.addr = alloca i64, align 8
  %__len = alloca i64, align 8
  %__middle = alloca ptr, align 8
  %agg.tmp = alloca %"struct.__gnu_cxx::__ops::_Iter_comp_iter.187", align 8
  %agg.tmp4 = alloca %"struct.__gnu_cxx::__ops::_Iter_comp_iter.187", align 8
  %agg.tmp7 = alloca %"struct.__gnu_cxx::__ops::_Iter_comp_iter.187", align 8
  %agg.tmp10 = alloca %"struct.__gnu_cxx::__ops::_Iter_comp_iter.187", align 8
  %agg.tmp21 = alloca %"struct.__gnu_cxx::__ops::_Iter_comp_iter.187", align 8
  %coerce.dive = getelementptr inbounds %"struct.__gnu_cxx::__ops::_Iter_comp_iter.187", ptr %__comp, i32 0, i32 0
  %coerce.dive1 = getelementptr inbounds %class.anon.92, ptr %coerce.dive, i32 0, i32 0
  store ptr %__comp.coerce, ptr %coerce.dive1, align 8
  store ptr %__first, ptr %__first.addr, align 8
  store ptr %__last, ptr %__last.addr, align 8
  store ptr %__buffer, ptr %__buffer.addr, align 8
  store i64 %__buffer_size, ptr %__buffer_size.addr, align 8
  %0 = load ptr, ptr %__last.addr, align 8
  %1 = load ptr, ptr %__first.addr, align 8
  %sub.ptr.lhs.cast = ptrtoint ptr %0 to i64
  %sub.ptr.rhs.cast = ptrtoint ptr %1 to i64
  %sub.ptr.sub = sub i64 %sub.ptr.lhs.cast, %sub.ptr.rhs.cast
  %sub.ptr.div = sdiv exact i64 %sub.ptr.sub, 4
  %add = add nsw i64 %sub.ptr.div, 1
  %div = sdiv i64 %add, 2
  store i64 %div, ptr %__len, align 8
  %2 = load ptr, ptr %__first.addr, align 8
  %3 = load i64, ptr %__len, align 8
  %add.ptr = getelementptr inbounds i32, ptr %2, i64 %3
  store ptr %add.ptr, ptr %__middle, align 8
  %4 = load i64, ptr %__len, align 8
  %5 = load i64, ptr %__buffer_size.addr, align 8
  %cmp = icmp sgt i64 %4, %5
  br i1 %cmp, label %if.then, label %if.else

if.then:                                          ; preds = %entry
  %6 = load ptr, ptr %__first.addr, align 8
  %7 = load ptr, ptr %__middle, align 8
  %8 = load ptr, ptr %__buffer.addr, align 8
  %9 = load i64, ptr %__buffer_size.addr, align 8
  call void @llvm.memcpy.p0.p0.i64(ptr align 8 %agg.tmp, ptr align 8 %__comp, i64 8, i1 false)
  %coerce.dive2 = getelementptr inbounds %"struct.__gnu_cxx::__ops::_Iter_comp_iter.187", ptr %agg.tmp, i32 0, i32 0
  %coerce.dive3 = getelementptr inbounds %class.anon.92, ptr %coerce.dive2, i32 0, i32 0
  %10 = load ptr, ptr %coerce.dive3, align 8
  call void @"_ZSt22__stable_sort_adaptiveIPiS0_lN9__gnu_cxx5__ops15_Iter_comp_iterIZN8facebook5velox9MapVector12canonicalizeERKSt10shared_ptrIS6_EbE3$_0EEEvT_SD_T0_T1_T2_"(ptr noundef %6, ptr noundef %7, ptr noundef %8, i64 noundef %9, ptr %10)
  %11 = load ptr, ptr %__middle, align 8
  %12 = load ptr, ptr %__last.addr, align 8
  %13 = load ptr, ptr %__buffer.addr, align 8
  %14 = load i64, ptr %__buffer_size.addr, align 8
  call void @llvm.memcpy.p0.p0.i64(ptr align 8 %agg.tmp4, ptr align 8 %__comp, i64 8, i1 false)
  %coerce.dive5 = getelementptr inbounds %"struct.__gnu_cxx::__ops::_Iter_comp_iter.187", ptr %agg.tmp4, i32 0, i32 0
  %coerce.dive6 = getelementptr inbounds %class.anon.92, ptr %coerce.dive5, i32 0, i32 0
  %15 = load ptr, ptr %coerce.dive6, align 8
  call void @"_ZSt22__stable_sort_adaptiveIPiS0_lN9__gnu_cxx5__ops15_Iter_comp_iterIZN8facebook5velox9MapVector12canonicalizeERKSt10shared_ptrIS6_EbE3$_0EEEvT_SD_T0_T1_T2_"(ptr noundef %11, ptr noundef %12, ptr noundef %13, i64 noundef %14, ptr %15)
  br label %if.end

if.else:                                          ; preds = %entry
  %16 = load ptr, ptr %__first.addr, align 8
  %17 = load ptr, ptr %__middle, align 8
  %18 = load ptr, ptr %__buffer.addr, align 8
  call void @llvm.memcpy.p0.p0.i64(ptr align 8 %agg.tmp7, ptr align 8 %__comp, i64 8, i1 false)
  %coerce.dive8 = getelementptr inbounds %"struct.__gnu_cxx::__ops::_Iter_comp_iter.187", ptr %agg.tmp7, i32 0, i32 0
  %coerce.dive9 = getelementptr inbounds %class.anon.92, ptr %coerce.dive8, i32 0, i32 0
  %19 = load ptr, ptr %coerce.dive9, align 8
  call void @"_ZSt24__merge_sort_with_bufferIPiS0_N9__gnu_cxx5__ops15_Iter_comp_iterIZN8facebook5velox9MapVector12canonicalizeERKSt10shared_ptrIS6_EbE3$_0EEEvT_SD_T0_T1_"(ptr noundef %16, ptr noundef %17, ptr noundef %18, ptr %19)
  %20 = load ptr, ptr %__middle, align 8
  %21 = load ptr, ptr %__last.addr, align 8
  %22 = load ptr, ptr %__buffer.addr, align 8
  call void @llvm.memcpy.p0.p0.i64(ptr align 8 %agg.tmp10, ptr align 8 %__comp, i64 8, i1 false)
  %coerce.dive11 = getelementptr inbounds %"struct.__gnu_cxx::__ops::_Iter_comp_iter.187", ptr %agg.tmp10, i32 0, i32 0
  %coerce.dive12 = getelementptr inbounds %class.anon.92, ptr %coerce.dive11, i32 0, i32 0
  %23 = load ptr, ptr %coerce.dive12, align 8
  call void @"_ZSt24__merge_sort_with_bufferIPiS0_N9__gnu_cxx5__ops15_Iter_comp_iterIZN8facebook5velox9MapVector12canonicalizeERKSt10shared_ptrIS6_EbE3$_0EEEvT_SD_T0_T1_"(ptr noundef %20, ptr noundef %21, ptr noundef %22, ptr %23)
  br label %if.end

if.end:                                           ; preds = %if.else, %if.then
  %24 = load ptr, ptr %__first.addr, align 8
  %25 = load ptr, ptr %__middle, align 8
  %26 = load ptr, ptr %__last.addr, align 8
  %27 = load ptr, ptr %__middle, align 8
  %28 = load ptr, ptr %__first.addr, align 8
  %sub.ptr.lhs.cast13 = ptrtoint ptr %27 to i64
  %sub.ptr.rhs.cast14 = ptrtoint ptr %28 to i64
  %sub.ptr.sub15 = sub i64 %sub.ptr.lhs.cast13, %sub.ptr.rhs.cast14
  %sub.ptr.div16 = sdiv exact i64 %sub.ptr.sub15, 4
  %29 = load ptr, ptr %__last.addr, align 8
  %30 = load ptr, ptr %__middle, align 8
  %sub.ptr.lhs.cast17 = ptrtoint ptr %29 to i64
  %sub.ptr.rhs.cast18 = ptrtoint ptr %30 to i64
  %sub.ptr.sub19 = sub i64 %sub.ptr.lhs.cast17, %sub.ptr.rhs.cast18
  %sub.ptr.div20 = sdiv exact i64 %sub.ptr.sub19, 4
  %31 = load ptr, ptr %__buffer.addr, align 8
  %32 = load i64, ptr %__buffer_size.addr, align 8
  call void @llvm.memcpy.p0.p0.i64(ptr align 8 %agg.tmp21, ptr align 8 %__comp, i64 8, i1 false)
  %coerce.dive22 = getelementptr inbounds %"struct.__gnu_cxx::__ops::_Iter_comp_iter.187", ptr %agg.tmp21, i32 0, i32 0
  %coerce.dive23 = getelementptr inbounds %class.anon.92, ptr %coerce.dive22, i32 0, i32 0
  %33 = load ptr, ptr %coerce.dive23, align 8
  %coerce.val.pi = ptrtoint ptr %33 to i64
  call void @"_ZSt16__merge_adaptiveIPilS0_N9__gnu_cxx5__ops15_Iter_comp_iterIZN8facebook5velox9MapVector12canonicalizeERKSt10shared_ptrIS6_EbE3$_0EEEvT_SD_SD_T0_SE_T1_SE_T2_"(ptr noundef %24, ptr noundef %25, ptr noundef %26, i64 noundef %sub.ptr.div16, i64 noundef %sub.ptr.div20, ptr noundef %31, i64 noundef %32, i64 %coerce.val.pi)
  ret void
}