; Function Attrs: mustprogress uwtable
define internal fastcc void @"_ZSt22__stable_sort_adaptiveIPiS0_lN9__gnu_cxx5__ops15_Iter_comp_iterIZN8facebook5velox9MapVector12canonicalizeERKSt10shared_ptrIS6_EbE3$_0EEEvT_SD_T0_T1_T2_"(ptr noundef %__first, ptr noundef %__last, ptr noundef %__buffer, i64 noundef %__buffer_size, ptr %__comp.coerce) unnamed_addr #0 {
entry:
  %sub.ptr.lhs.cast = ptrtoint ptr %__last to i64
  %sub.ptr.rhs.cast = ptrtoint ptr %__first to i64
  %sub.ptr.sub = sub i64 %sub.ptr.lhs.cast, %sub.ptr.rhs.cast
  %sub.ptr.div = ashr exact i64 %sub.ptr.sub, 2
  %add = add nsw i64 %sub.ptr.div, 1
  %div = sdiv i64 %add, 2
  %add.ptr = getelementptr inbounds i32, ptr %__first, i64 %div
  %cmp = icmp sgt i64 %div, %__buffer_size
  br i1 %cmp, label %if.then, label %if.else

if.then:                                          ; preds = %entry
  tail call fastcc void @"_ZSt22__stable_sort_adaptiveIPiS0_lN9__gnu_cxx5__ops15_Iter_comp_iterIZN8facebook5velox9MapVector12canonicalizeERKSt10shared_ptrIS6_EbE3$_0EEEvT_SD_T0_T1_T2_"(ptr noundef %__first, ptr noundef %add.ptr, ptr noundef %__buffer, i64 noundef %__buffer_size, ptr %__comp.coerce)
  tail call fastcc void @"_ZSt22__stable_sort_adaptiveIPiS0_lN9__gnu_cxx5__ops15_Iter_comp_iterIZN8facebook5velox9MapVector12canonicalizeERKSt10shared_ptrIS6_EbE3$_0EEEvT_SD_T0_T1_T2_"(ptr noundef %add.ptr, ptr noundef %__last, ptr noundef %__buffer, i64 noundef %__buffer_size, ptr %__comp.coerce)
  %.pre = ptrtoint ptr %add.ptr to i64
  %.pre45 = sub i64 %sub.ptr.lhs.cast, %.pre
  %.pre46 = ashr exact i64 %.pre45, 2
  br label %if.end

if.else:                                          ; preds = %entry
  %sub.ptr.lhs.cast.i = ptrtoint ptr %add.ptr to i64
  %add.ptr.idx = shl nsw i64 %div, 2
  %add.ptr.i = getelementptr inbounds i8, ptr %__buffer, i64 %add.ptr.idx
  %cmp10.i.i = icmp sgt i64 %sub.ptr.div, 12
  br i1 %cmp10.i.i, label %while.body.i.i, label %"_ZSt22__chunk_insertion_sortIPilN9__gnu_cxx5__ops15_Iter_comp_iterIZN8facebook5velox9MapVector12canonicalizeERKSt10shared_ptrIS6_EbE3$_0EEEvT_SD_T0_T1_.exit.i.thread"

"_ZSt22__chunk_insertion_sortIPilN9__gnu_cxx5__ops15_Iter_comp_iterIZN8facebook5velox9MapVector12canonicalizeERKSt10shared_ptrIS6_EbE3$_0EEEvT_SD_T0_T1_.exit.i.thread": ; preds = %if.else
  tail call fastcc void @"_ZSt16__insertion_sortIPiN9__gnu_cxx5__ops15_Iter_comp_iterIZN8facebook5velox9MapVector12canonicalizeERKSt10shared_ptrIS6_EbE3$_0EEEvT_SD_T0_"(ptr noundef %__first, ptr noundef %add.ptr, ptr %__comp.coerce)
  br label %"_ZSt24__merge_sort_with_bufferIPiS0_N9__gnu_cxx5__ops15_Iter_comp_iterIZN8facebook5velox9MapVector12canonicalizeERKSt10shared_ptrIS6_EbE3$_0EEEvT_SD_T0_T1_.exit"

while.body.i.i:                                   ; preds = %if.else, %while.body.i.i
  %__first.addr.011.i.i = phi ptr [ %add.ptr.i.i, %while.body.i.i ], [ %__first, %if.else ]
  %add.ptr.i.i = getelementptr inbounds i8, ptr %__first.addr.011.i.i, i64 28
  tail call fastcc void @"_ZSt16__insertion_sortIPiN9__gnu_cxx5__ops15_Iter_comp_iterIZN8facebook5velox9MapVector12canonicalizeERKSt10shared_ptrIS6_EbE3$_0EEEvT_SD_T0_"(ptr noundef %__first.addr.011.i.i, ptr noundef nonnull %add.ptr.i.i, ptr %__comp.coerce)
  %sub.ptr.rhs.cast.i.i = ptrtoint ptr %add.ptr.i.i to i64
  %sub.ptr.sub.i.i = sub i64 %sub.ptr.lhs.cast.i, %sub.ptr.rhs.cast.i.i
  %cmp.i.i = icmp sgt i64 %sub.ptr.sub.i.i, 24
  br i1 %cmp.i.i, label %while.body.i.i, label %"_ZSt22__chunk_insertion_sortIPilN9__gnu_cxx5__ops15_Iter_comp_iterIZN8facebook5velox9MapVector12canonicalizeERKSt10shared_ptrIS6_EbE3$_0EEEvT_SD_T0_T1_.exit.i", !llvm.loop !136

"_ZSt22__chunk_insertion_sortIPilN9__gnu_cxx5__ops15_Iter_comp_iterIZN8facebook5velox9MapVector12canonicalizeERKSt10shared_ptrIS6_EbE3$_0EEEvT_SD_T0_T1_.exit.i": ; preds = %while.body.i.i
  tail call fastcc void @"_ZSt16__insertion_sortIPiN9__gnu_cxx5__ops15_Iter_comp_iterIZN8facebook5velox9MapVector12canonicalizeERKSt10shared_ptrIS6_EbE3$_0EEEvT_SD_T0_"(ptr noundef nonnull %add.ptr.i.i, ptr noundef %add.ptr, ptr %__comp.coerce)
  %cmp14.i = icmp sgt i64 %sub.ptr.div, 14
  br i1 %cmp14.i, label %while.body.i, label %"_ZSt24__merge_sort_with_bufferIPiS0_N9__gnu_cxx5__ops15_Iter_comp_iterIZN8facebook5velox9MapVector12canonicalizeERKSt10shared_ptrIS6_EbE3$_0EEEvT_SD_T0_T1_.exit"

while.body.i:                                     ; preds = %"_ZSt22__chunk_insertion_sortIPilN9__gnu_cxx5__ops15_Iter_comp_iterIZN8facebook5velox9MapVector12canonicalizeERKSt10shared_ptrIS6_EbE3$_0EEEvT_SD_T0_T1_.exit.i", %while.body.i
  %__step_size.015.i = phi i64 [ %mul10.i, %while.body.i ], [ 7, %"_ZSt22__chunk_insertion_sortIPilN9__gnu_cxx5__ops15_Iter_comp_iterIZN8facebook5velox9MapVector12canonicalizeERKSt10shared_ptrIS6_EbE3$_0EEEvT_SD_T0_T1_.exit.i" ]
  tail call fastcc void @"_ZSt17__merge_sort_loopIPiS0_lN9__gnu_cxx5__ops15_Iter_comp_iterIZN8facebook5velox9MapVector12canonicalizeERKSt10shared_ptrIS6_EbE3$_0EEEvT_SD_T0_T1_T2_"(ptr noundef %__first, ptr noundef %add.ptr, ptr noundef %__buffer, i64 noundef %__step_size.015.i, ptr %__comp.coerce)
  %mul.i = shl nuw nsw i64 %__step_size.015.i, 1
  tail call fastcc void @"_ZSt17__merge_sort_loopIPiS0_lN9__gnu_cxx5__ops15_Iter_comp_iterIZN8facebook5velox9MapVector12canonicalizeERKSt10shared_ptrIS6_EbE3$_0EEEvT_SD_T0_T1_T2_"(ptr noundef %__buffer, ptr noundef %add.ptr.i, ptr noundef %__first, i64 noundef %mul.i, ptr %__comp.coerce)
  %mul10.i = shl nsw i64 %__step_size.015.i, 2
  %cmp.i = icmp slt i64 %mul10.i, %div
  br i1 %cmp.i, label %while.body.i, label %"_ZSt24__merge_sort_with_bufferIPiS0_N9__gnu_cxx5__ops15_Iter_comp_iterIZN8facebook5velox9MapVector12canonicalizeERKSt10shared_ptrIS6_EbE3$_0EEEvT_SD_T0_T1_.exit", !llvm.loop !137

"_ZSt24__merge_sort_with_bufferIPiS0_N9__gnu_cxx5__ops15_Iter_comp_iterIZN8facebook5velox9MapVector12canonicalizeERKSt10shared_ptrIS6_EbE3$_0EEEvT_SD_T0_T1_.exit": ; preds = %while.body.i, %"_ZSt22__chunk_insertion_sortIPilN9__gnu_cxx5__ops15_Iter_comp_iterIZN8facebook5velox9MapVector12canonicalizeERKSt10shared_ptrIS6_EbE3$_0EEEvT_SD_T0_T1_.exit.i.thread", %"_ZSt22__chunk_insertion_sortIPilN9__gnu_cxx5__ops15_Iter_comp_iterIZN8facebook5velox9MapVector12canonicalizeERKSt10shared_ptrIS6_EbE3$_0EEEvT_SD_T0_T1_.exit.i"
  %sub.ptr.sub.i26 = sub i64 %sub.ptr.lhs.cast, %sub.ptr.lhs.cast.i
  %sub.ptr.div.i27 = ashr exact i64 %sub.ptr.sub.i26, 2
  %add.ptr.i28 = getelementptr inbounds i8, ptr %__buffer, i64 %sub.ptr.sub.i26
  %cmp10.i.i29 = icmp sgt i64 %sub.ptr.sub.i26, 24
  br i1 %cmp10.i.i29, label %while.body.i.i38, label %"_ZSt22__chunk_insertion_sortIPilN9__gnu_cxx5__ops15_Iter_comp_iterIZN8facebook5velox9MapVector12canonicalizeERKSt10shared_ptrIS6_EbE3$_0EEEvT_SD_T0_T1_.exit.i30"

while.body.i.i38:                                 ; preds = %"_ZSt24__merge_sort_with_bufferIPiS0_N9__gnu_cxx5__ops15_Iter_comp_iterIZN8facebook5velox9MapVector12canonicalizeERKSt10shared_ptrIS6_EbE3$_0EEEvT_SD_T0_T1_.exit", %while.body.i.i38
  %__first.addr.011.i.i39 = phi ptr [ %add.ptr.i.i40, %while.body.i.i38 ], [ %add.ptr, %"_ZSt24__merge_sort_with_bufferIPiS0_N9__gnu_cxx5__ops15_Iter_comp_iterIZN8facebook5velox9MapVector12canonicalizeERKSt10shared_ptrIS6_EbE3$_0EEEvT_SD_T0_T1_.exit" ]
  %add.ptr.i.i40 = getelementptr inbounds i8, ptr %__first.addr.011.i.i39, i64 28
  tail call fastcc void @"_ZSt16__insertion_sortIPiN9__gnu_cxx5__ops15_Iter_comp_iterIZN8facebook5velox9MapVector12canonicalizeERKSt10shared_ptrIS6_EbE3$_0EEEvT_SD_T0_"(ptr noundef %__first.addr.011.i.i39, ptr noundef nonnull %add.ptr.i.i40, ptr %__comp.coerce)
  %sub.ptr.rhs.cast.i.i41 = ptrtoint ptr %add.ptr.i.i40 to i64
  %sub.ptr.sub.i.i42 = sub i64 %sub.ptr.lhs.cast, %sub.ptr.rhs.cast.i.i41
  %cmp.i.i43 = icmp sgt i64 %sub.ptr.sub.i.i42, 24
  br i1 %cmp.i.i43, label %while.body.i.i38, label %"_ZSt22__chunk_insertion_sortIPilN9__gnu_cxx5__ops15_Iter_comp_iterIZN8facebook5velox9MapVector12canonicalizeERKSt10shared_ptrIS6_EbE3$_0EEEvT_SD_T0_T1_.exit.i30", !llvm.loop !136

"_ZSt22__chunk_insertion_sortIPilN9__gnu_cxx5__ops15_Iter_comp_iterIZN8facebook5velox9MapVector12canonicalizeERKSt10shared_ptrIS6_EbE3$_0EEEvT_SD_T0_T1_.exit.i30": ; preds = %while.body.i.i38, %"_ZSt24__merge_sort_with_bufferIPiS0_N9__gnu_cxx5__ops15_Iter_comp_iterIZN8facebook5velox9MapVector12canonicalizeERKSt10shared_ptrIS6_EbE3$_0EEEvT_SD_T0_T1_.exit"
  %__first.addr.0.lcssa.i.i31 = phi ptr [ %add.ptr, %"_ZSt24__merge_sort_with_bufferIPiS0_N9__gnu_cxx5__ops15_Iter_comp_iterIZN8facebook5velox9MapVector12canonicalizeERKSt10shared_ptrIS6_EbE3$_0EEEvT_SD_T0_T1_.exit" ], [ %add.ptr.i.i40, %while.body.i.i38 ]
  tail call fastcc void @"_ZSt16__insertion_sortIPiN9__gnu_cxx5__ops15_Iter_comp_iterIZN8facebook5velox9MapVector12canonicalizeERKSt10shared_ptrIS6_EbE3$_0EEEvT_SD_T0_"(ptr noundef %__first.addr.0.lcssa.i.i31, ptr noundef %__last, ptr %__comp.coerce)
  %cmp14.i32 = icmp sgt i64 %sub.ptr.div.i27, 7
  br i1 %cmp14.i32, label %while.body.i33, label %if.end

while.body.i33:                                   ; preds = %"_ZSt22__chunk_insertion_sortIPilN9__gnu_cxx5__ops15_Iter_comp_iterIZN8facebook5velox9MapVector12canonicalizeERKSt10shared_ptrIS6_EbE3$_0EEEvT_SD_T0_T1_.exit.i30", %while.body.i33
  %__step_size.015.i34 = phi i64 [ %mul10.i36, %while.body.i33 ], [ 7, %"_ZSt22__chunk_insertion_sortIPilN9__gnu_cxx5__ops15_Iter_comp_iterIZN8facebook5velox9MapVector12canonicalizeERKSt10shared_ptrIS6_EbE3$_0EEEvT_SD_T0_T1_.exit.i30" ]
  tail call fastcc void @"_ZSt17__merge_sort_loopIPiS0_lN9__gnu_cxx5__ops15_Iter_comp_iterIZN8facebook5velox9MapVector12canonicalizeERKSt10shared_ptrIS6_EbE3$_0EEEvT_SD_T0_T1_T2_"(ptr noundef %add.ptr, ptr noundef %__last, ptr noundef %__buffer, i64 noundef %__step_size.015.i34, ptr %__comp.coerce)
  %mul.i35 = shl nuw nsw i64 %__step_size.015.i34, 1
  tail call fastcc void @"_ZSt17__merge_sort_loopIPiS0_lN9__gnu_cxx5__ops15_Iter_comp_iterIZN8facebook5velox9MapVector12canonicalizeERKSt10shared_ptrIS6_EbE3$_0EEEvT_SD_T0_T1_T2_"(ptr noundef %__buffer, ptr noundef %add.ptr.i28, ptr noundef %add.ptr, i64 noundef %mul.i35, ptr %__comp.coerce)
  %mul10.i36 = shl nsw i64 %__step_size.015.i34, 2
  %cmp.i37 = icmp slt i64 %mul10.i36, %sub.ptr.div.i27
  br i1 %cmp.i37, label %while.body.i33, label %if.end, !llvm.loop !137

if.end:                                           ; preds = %while.body.i33, %"_ZSt22__chunk_insertion_sortIPilN9__gnu_cxx5__ops15_Iter_comp_iterIZN8facebook5velox9MapVector12canonicalizeERKSt10shared_ptrIS6_EbE3$_0EEEvT_SD_T0_T1_.exit.i30", %if.then
  %sub.ptr.div20.pre-phi = phi i64 [ %sub.ptr.div.i27, %"_ZSt22__chunk_insertion_sortIPilN9__gnu_cxx5__ops15_Iter_comp_iterIZN8facebook5velox9MapVector12canonicalizeERKSt10shared_ptrIS6_EbE3$_0EEEvT_SD_T0_T1_.exit.i30" ], [ %.pre46, %if.then ], [ %sub.ptr.div.i27, %while.body.i33 ]
  %coerce.val.pi = ptrtoint ptr %__comp.coerce to i64
  tail call fastcc void @"_ZSt16__merge_adaptiveIPilS0_N9__gnu_cxx5__ops15_Iter_comp_iterIZN8facebook5velox9MapVector12canonicalizeERKSt10shared_ptrIS6_EbE3$_0EEEvT_SD_SD_T0_SE_T1_SE_T2_"(ptr noundef %__first, ptr noundef %add.ptr, ptr noundef %__last, i64 noundef %div, i64 noundef %sub.ptr.div20.pre-phi, ptr noundef %__buffer, i64 noundef %__buffer_size, i64 %coerce.val.pi)
  ret void
}